target datalayout = "e-m:e-p270:32:32-p271:32:32-p272:64:64-i64:64-i128:128-f80:128-n8:16:32:64-S128"
target triple = "x86_64-pc-linux-gnu"

@.str.24 = private unnamed_addr constant [28 x i8] c"../openssl/test/test_test.c\00", align 1
@stderr = external global ptr, align 8
@.str.47 = private unnamed_addr constant [19 x i8] c"# FATAL: %s != %d\0A\00", align 1
@.str.209 = private unnamed_addr constant [5 x i8] c"NULL\00", align 1
@.str.230 = private unnamed_addr constant [6 x i8] c"\22abc\22\00", align 1
@.str.231 = private unnamed_addr constant [4 x i8] c"buf\00", align 1
@.str.232 = private unnamed_addr constant [4 x i8] c"abc\00", align 1
@.str.235 = private unnamed_addr constant [3 x i8] c"\22\22\00", align 1
@.str.236 = private unnamed_addr constant [1 x i8] zeroinitializer, align 1
@test_memory.buf = internal global [4 x i8] c"xyz\00", align 1
@.str.255 = private unnamed_addr constant [30 x i8] c"TEST_mem_eq(NULL, 0, NULL, 0)\00", align 1
@.str.256 = private unnamed_addr constant [30 x i8] c"TEST_mem_eq(NULL, 1, NULL, 2)\00", align 1
@.str.257 = private unnamed_addr constant [31 x i8] c"TEST_mem_eq(NULL, 0, \22xyz\22, 3)\00", align 1
@.str.258 = private unnamed_addr constant [6 x i8] c"\22xyz\22\00", align 1
@.str.259 = private unnamed_addr constant [4 x i8] c"xyz\00", align 1
@.str.260 = private unnamed_addr constant [31 x i8] c"TEST_mem_eq(NULL, 7, \22abc\22, 3)\00", align 1
@.str.261 = private unnamed_addr constant [30 x i8] c"TEST_mem_ne(NULL, 0, NULL, 0)\00", align 1
@.str.262 = private unnamed_addr constant [28 x i8] c"TEST_mem_eq(NULL, 0, \22\22, 0)\00", align 1
@.str.263 = private unnamed_addr constant [28 x i8] c"TEST_mem_eq(\22\22, 0, NULL, 0)\00", align 1
@.str.264 = private unnamed_addr constant [26 x i8] c"TEST_mem_ne(\22\22, 0, \22\22, 0)\00", align 1
@.str.265 = private unnamed_addr constant [31 x i8] c"TEST_mem_eq(\22xyz\22, 3, NULL, 0)\00", align 1
@.str.266 = private unnamed_addr constant [40 x i8] c"TEST_mem_eq(\22xyz\22, 3, buf, sizeof(buf))\00", align 1
@.str.267 = private unnamed_addr constant [40 x i8] c"TEST_mem_eq(\22xyz\22, 4, buf, sizeof(buf))\00", align 1

; Function Attrs: nounwind uwtable
define internal i32 @test_case(i32 noundef %0, ptr noundef %1, i32 noundef %2) #0 {
  %4 = alloca i32, align 4
  %5 = alloca i32, align 4
  %6 = alloca ptr, align 8
  %7 = alloca i32, align 4
  store i32 %0, ptr %5, align 4, !tbaa !4
  store ptr %1, ptr %6, align 8, !tbaa !9
  store i32 %2, ptr %7, align 4, !tbaa !4
  %8 = load i32, ptr %7, align 4, !tbaa !4
  %9 = load i32, ptr %5, align 4, !tbaa !4
  %10 = icmp ne i32 %8, %9
  br i1 %10, label %11, label %16

11:                                               ; preds = %3
  %12 = load ptr, ptr @stderr, align 8, !tbaa !16
  %13 = load ptr, ptr %6, align 8, !tbaa !9
  %14 = load i32, ptr %5, align 4, !tbaa !4
  %15 = call i32 (ptr, ptr, ...) @fprintf(ptr noundef %12, ptr noundef @.str.47, ptr noundef %13, i32 noundef %14) #7
  store i32 0, ptr %4, align 4
  br label %17

16:                                               ; preds = %3
  store i32 1, ptr %4, align 4
  br label %17

17:                                               ; preds = %16, %11
  %18 = load i32, ptr %4, align 4
  ret i32 %18
}

; Function Attrs: nounwind uwtable
define internal i32 @test_memory() #0 {
  %1 = alloca i32, align 4
  %2 = call i32 @test_mem_eq(ptr noundef @.str.24, i32 noundef 285, ptr noundef @.str.209, ptr noundef @.str.209, ptr noundef null, i64 noundef 0, ptr noundef null, i64 noundef 0)
  %3 = call i32 @test_case(i32 noundef 1, ptr noundef @.str.255, i32 noundef %2)
  %4 = icmp ne i32 %3, 0
  br i1 %4, label %5, label %45

5:                                                ; preds = %0
  %6 = call i32 @test_mem_eq(ptr noundef @.str.24, i32 noundef 286, ptr noundef @.str.209, ptr noundef @.str.209, ptr noundef null, i64 noundef 1, ptr noundef null, i64 noundef 2)
  %7 = call i32 @test_case(i32 noundef 1, ptr noundef @.str.256, i32 noundef %6)
  %8 = icmp ne i32 %7, 0
  br i1 %8, label %9, label %45

9:                                                ; preds = %5
  %10 = call i32 @test_mem_eq(ptr noundef @.str.24, i32 noundef 287, ptr noundef @.str.209, ptr noundef @.str.258, ptr noundef null, i64 noundef 0, ptr noundef @.str.259, i64 noundef 3)
  %11 = call i32 @test_case(i32 noundef 0, ptr noundef @.str.257, i32 noundef %10)
  %12 = icmp ne i32 %11, 0
  br i1 %12, label %13, label %45

13:                                               ; preds = %9
  %14 = call i32 @test_mem_eq(ptr noundef @.str.24, i32 noundef 288, ptr noundef @.str.209, ptr noundef @.str.230, ptr noundef null, i64 noundef 7, ptr noundef @.str.232, i64 noundef 3)
  %15 = call i32 @test_case(i32 noundef 0, ptr noundef @.str.260, i32 noundef %14)
  %16 = icmp ne i32 %15, 0
  br i1 %16, label %17, label %45

17:                                               ; preds = %13
  %18 = call i32 @test_mem_ne(ptr noundef @.str.24, i32 noundef 289, ptr noundef @.str.209, ptr noundef @.str.209, ptr noundef null, i64 noundef 0, ptr noundef null, i64 noundef 0)
  %19 = call i32 @test_case(i32 noundef 0, ptr noundef @.str.261, i32 noundef %18)
  %20 = icmp ne i32 %19, 0
  br i1 %20, label %21, label %45

21:                                               ; preds = %17
  %22 = call i32 @test_mem_eq(ptr noundef @.str.24, i32 noundef 290, ptr noundef @.str.209, ptr noundef @.str.235, ptr noundef null, i64 noundef 0, ptr noundef @.str.236, i64 noundef 0)
  %23 = call i32 @test_case(i32 noundef 0, ptr noundef @.str.262, i32 noundef %22)
  %24 = icmp ne i32 %23, 0
  br i1 %24, label %25, label %45

25:                                               ; preds = %21
  %26 = call i32 @test_mem_eq(ptr noundef @.str.24, i32 noundef 291, ptr noundef @.str.235, ptr noundef @.str.209, ptr noundef @.str.236, i64 noundef 0, ptr noundef null, i64 noundef 0)
  %27 = call i32 @test_case(i32 noundef 0, ptr noundef @.str.263, i32 noundef %26)
  %28 = icmp ne i32 %27, 0
  br i1 %28, label %29, label %45

29:                                               ; preds = %25
  %30 = call i32 @test_mem_ne(ptr noundef @.str.24, i32 noundef 292, ptr noundef @.str.235, ptr noundef @.str.235, ptr noundef @.str.236, i64 noundef 0, ptr noundef @.str.236, i64 noundef 0)
  %31 = call i32 @test_case(i32 noundef 0, ptr noundef @.str.264, i32 noundef %30)
  %32 = icmp ne i32 %31, 0
  br i1 %32, label %33, label %45

33:                                               ; preds = %29
  %34 = call i32 @test_mem_eq(ptr noundef @.str.24, i32 noundef 293, ptr noundef @.str.258, ptr noundef @.str.209, ptr noundef @.str.259, i64 noundef 3, ptr noundef null, i64 noundef 0)
  %35 = call i32 @test_case(i32 noundef 0, ptr noundef @.str.265, i32 noundef %34)
  %36 = icmp ne i32 %35, 0
  br i1 %36, label %37, label %45

37:                                               ; preds = %33
  %38 = call i32 @test_mem_eq(ptr noundef @.str.24, i32 noundef 294, ptr noundef @.str.258, ptr noundef @.str.231, ptr noundef @.str.259, i64 noundef 3, ptr noundef @test_memory.buf, i64 noundef 4)
  %39 = call i32 @test_case(i32 noundef 0, ptr noundef @.str.266, i32 noundef %38)
  %40 = icmp ne i32 %39, 0
  br i1 %40, label %41, label %45

41:                                               ; preds = %37
  %42 = call i32 @test_mem_eq(ptr noundef @.str.24, i32 noundef 295, ptr noundef @.str.258, ptr noundef @.str.231, ptr noundef @.str.259, i64 noundef 4, ptr noundef @test_memory.buf, i64 noundef 4)
  %43 = call i32 @test_case(i32 noundef 1, ptr noundef @.str.267, i32 noundef %42)
  %44 = icmp ne i32 %43, 0
  br i1 %44, label %46, label %45

45:                                               ; preds = %41, %37, %33, %29, %25, %21, %17, %13, %9, %5, %0
  br label %47

46:                                               ; preds = %41
  store i32 1, ptr %1, align 4
  br label %48

47:                                               ; preds = %45
  store i32 0, ptr %1, align 4
  br label %48

48:                                               ; preds = %47, %46
  %49 = load i32, ptr %1, align 4
  ret i32 %49
}