; Function Attrs: nounwind uwtable
define internal range(i32 0, 2) i32 @test_memory() #0 {
  %1 = tail call i32 @test_mem_eq(ptr noundef nonnull @.str.24, i32 noundef 285, ptr noundef nonnull @.str.209, ptr noundef nonnull @.str.209, ptr noundef null, i64 noundef 0, ptr noundef null, i64 noundef 0) #5
  %.not.i = icmp eq i32 %1, 1
  br i1 %.not.i, label %test_case.exit, label %test_case.exit.thread

test_case.exit.thread:                            ; preds = %0
  %2 = load ptr, ptr @stderr, align 8, !tbaa !4
  %3 = tail call i32 (ptr, ptr, ...) @fprintf(ptr noundef %2, ptr noundef nonnull @.str.47, ptr noundef nonnull @.str.255, i32 noundef 1) #6
  br label %test_case.exit40

test_case.exit:                                   ; preds = %0
  %4 = tail call i32 @test_mem_eq(ptr noundef nonnull @.str.24, i32 noundef 286, ptr noundef nonnull @.str.209, ptr noundef nonnull @.str.209, ptr noundef null, i64 noundef 1, ptr noundef null, i64 noundef 2) #5
  %.not.i11 = icmp eq i32 %4, 1
  br i1 %.not.i11, label %test_case.exit13, label %test_case.exit13.thread

test_case.exit13.thread:                          ; preds = %test_case.exit
  %5 = load ptr, ptr @stderr, align 8, !tbaa !4
  %6 = tail call i32 (ptr, ptr, ...) @fprintf(ptr noundef %5, ptr noundef nonnull @.str.47, ptr noundef nonnull @.str.256, i32 noundef 1) #6
  br label %test_case.exit40

test_case.exit13:                                 ; preds = %test_case.exit
  %7 = tail call i32 @test_mem_eq(ptr noundef nonnull @.str.24, i32 noundef 287, ptr noundef nonnull @.str.209, ptr noundef nonnull @.str.258, ptr noundef null, i64 noundef 0, ptr noundef nonnull @.str.259, i64 noundef 3) #5
  %.not.i14 = icmp eq i32 %7, 0
  br i1 %.not.i14, label %test_case.exit16, label %test_case.exit16.thread

test_case.exit16.thread:                          ; preds = %test_case.exit13
  %8 = load ptr, ptr @stderr, align 8, !tbaa !4
  %9 = tail call i32 (ptr, ptr, ...) @fprintf(ptr noundef %8, ptr noundef nonnull @.str.47, ptr noundef nonnull @.str.257, i32 noundef 0) #6
  br label %test_case.exit40

test_case.exit16:                                 ; preds = %test_case.exit13
  %10 = tail call i32 @test_mem_eq(ptr noundef nonnull @.str.24, i32 noundef 288, ptr noundef nonnull @.str.209, ptr noundef nonnull @.str.230, ptr noundef null, i64 noundef 7, ptr noundef nonnull @.str.232, i64 noundef 3) #5
  %.not.i17 = icmp eq i32 %10, 0
  br i1 %.not.i17, label %test_case.exit19, label %test_case.exit19.thread

test_case.exit19.thread:                          ; preds = %test_case.exit16
  %11 = load ptr, ptr @stderr, align 8, !tbaa !4
  %12 = tail call i32 (ptr, ptr, ...) @fprintf(ptr noundef %11, ptr noundef nonnull @.str.47, ptr noundef nonnull @.str.260, i32 noundef 0) #6
  br label %test_case.exit40

test_case.exit19:                                 ; preds = %test_case.exit16
  %13 = tail call i32 @test_mem_ne(ptr noundef nonnull @.str.24, i32 noundef 289, ptr noundef nonnull @.str.209, ptr noundef nonnull @.str.209, ptr noundef null, i64 noundef 0, ptr noundef null, i64 noundef 0) #5
  %.not.i20 = icmp eq i32 %13, 0
  br i1 %.not.i20, label %test_case.exit22, label %test_case.exit22.thread

test_case.exit22.thread:                          ; preds = %test_case.exit19
  %14 = load ptr, ptr @stderr, align 8, !tbaa !4
  %15 = tail call i32 (ptr, ptr, ...) @fprintf(ptr noundef %14, ptr noundef nonnull @.str.47, ptr noundef nonnull @.str.261, i32 noundef 0) #6
  br label %test_case.exit40

test_case.exit22:                                 ; preds = %test_case.exit19
  %16 = tail call i32 @test_mem_eq(ptr noundef nonnull @.str.24, i32 noundef 290, ptr noundef nonnull @.str.209, ptr noundef nonnull @.str.235, ptr noundef null, i64 noundef 0, ptr noundef nonnull @.str.236, i64 noundef 0) #5
  %.not.i23 = icmp eq i32 %16, 0
  br i1 %.not.i23, label %test_case.exit25, label %test_case.exit25.thread

test_case.exit25.thread:                          ; preds = %test_case.exit22
  %17 = load ptr, ptr @stderr, align 8, !tbaa !4
  %18 = tail call i32 (ptr, ptr, ...) @fprintf(ptr noundef %17, ptr noundef nonnull @.str.47, ptr noundef nonnull @.str.262, i32 noundef 0) #6
  br label %test_case.exit40

test_case.exit25:                                 ; preds = %test_case.exit22
  %19 = tail call i32 @test_mem_eq(ptr noundef nonnull @.str.24, i32 noundef 291, ptr noundef nonnull @.str.235, ptr noundef nonnull @.str.209, ptr noundef nonnull @.str.236, i64 noundef 0, ptr noundef null, i64 noundef 0) #5
  %.not.i26 = icmp eq i32 %19, 0
  br i1 %.not.i26, label %test_case.exit28, label %test_case.exit28.thread

test_case.exit28.thread:                          ; preds = %test_case.exit25
  %20 = load ptr, ptr @stderr, align 8, !tbaa !4
  %21 = tail call i32 (ptr, ptr, ...) @fprintf(ptr noundef %20, ptr noundef nonnull @.str.47, ptr noundef nonnull @.str.263, i32 noundef 0) #6
  br label %test_case.exit40

test_case.exit28:                                 ; preds = %test_case.exit25
  %22 = tail call i32 @test_mem_ne(ptr noundef nonnull @.str.24, i32 noundef 292, ptr noundef nonnull @.str.235, ptr noundef nonnull @.str.235, ptr noundef nonnull @.str.236, i64 noundef 0, ptr noundef nonnull @.str.236, i64 noundef 0) #5
  %.not.i29 = icmp eq i32 %22, 0
  br i1 %.not.i29, label %test_case.exit31, label %test_case.exit31.thread

test_case.exit31.thread:                          ; preds = %test_case.exit28
  %23 = load ptr, ptr @stderr, align 8, !tbaa !4
  %24 = tail call i32 (ptr, ptr, ...) @fprintf(ptr noundef %23, ptr noundef nonnull @.str.47, ptr noundef nonnull @.str.264, i32 noundef 0) #6
  br label %test_case.exit40

test_case.exit31:                                 ; preds = %test_case.exit28
  %25 = tail call i32 @test_mem_eq(ptr noundef nonnull @.str.24, i32 noundef 293, ptr noundef nonnull @.str.258, ptr noundef nonnull @.str.209, ptr noundef nonnull @.str.259, i64 noundef 3, ptr noundef null, i64 noundef 0) #5
  %.not.i32 = icmp eq i32 %25, 0
  br i1 %.not.i32, label %test_case.exit34, label %test_case.exit34.thread

test_case.exit34.thread:                          ; preds = %test_case.exit31
  %26 = load ptr, ptr @stderr, align 8, !tbaa !4
  %27 = tail call i32 (ptr, ptr, ...) @fprintf(ptr noundef %26, ptr noundef nonnull @.str.47, ptr noundef nonnull @.str.265, i32 noundef 0) #6
  br label %test_case.exit40

test_case.exit34:                                 ; preds = %test_case.exit31
  %28 = tail call i32 @test_mem_eq(ptr noundef nonnull @.str.24, i32 noundef 294, ptr noundef nonnull @.str.258, ptr noundef nonnull @.str.231, ptr noundef nonnull @.str.259, i64 noundef 3, ptr noundef nonnull @test_memory.buf, i64 noundef 4) #5
  %.not.i35 = icmp eq i32 %28, 0
  br i1 %.not.i35, label %test_case.exit37, label %test_case.exit37.thread

test_case.exit37.thread:                          ; preds = %test_case.exit34
  %29 = load ptr, ptr @stderr, align 8, !tbaa !4
  %30 = tail call i32 (ptr, ptr, ...) @fprintf(ptr noundef %29, ptr noundef nonnull @.str.47, ptr noundef nonnull @.str.266, i32 noundef 0) #6
  br label %test_case.exit40

test_case.exit37:                                 ; preds = %test_case.exit34
  %31 = tail call i32 @test_mem_eq(ptr noundef nonnull @.str.24, i32 noundef 295, ptr noundef nonnull @.str.258, ptr noundef nonnull @.str.231, ptr noundef nonnull @.str.259, i64 noundef 4, ptr noundef nonnull @test_memory.buf, i64 noundef 4) #5
  %.not.i38 = icmp eq i32 %31, 1
  br i1 %.not.i38, label %test_case.exit40, label %test_case.exit40.thread

test_case.exit40.thread:                          ; preds = %test_case.exit37
  %32 = load ptr, ptr @stderr, align 8, !tbaa !4
  %33 = tail call i32 (ptr, ptr, ...) @fprintf(ptr noundef %32, ptr noundef nonnull @.str.47, ptr noundef nonnull @.str.267, i32 noundef 1) #6
  br label %test_case.exit40

test_case.exit40:                                 ; preds = %test_case.exit.thread, %test_case.exit13.thread, %test_case.exit16.thread, %test_case.exit19.thread, %test_case.exit22.thread, %test_case.exit25.thread, %test_case.exit28.thread, %test_case.exit31.thread, %test_case.exit34.thread, %test_case.exit37.thread, %test_case.exit40.thread, %test_case.exit37
  %.0 = phi i32 [ 1, %test_case.exit37 ], [ 0, %test_case.exit40.thread ], [ 0, %test_case.exit37.thread ], [ 0, %test_case.exit34.thread ], [ 0, %test_case.exit31.thread ], [ 0, %test_case.exit28.thread ], [ 0, %test_case.exit25.thread ], [ 0, %test_case.exit22.thread ], [ 0, %test_case.exit19.thread ], [ 0, %test_case.exit16.thread ], [ 0, %test_case.exit13.thread ], [ 0, %test_case.exit.thread ]
  ret i32 %.0
}